target datalayout = "e-m:e-p270:32:32-p271:32:32-p272:64:64-i64:64-i128:128-f80:128-n8:16:32:64-S128"
target triple = "x86_64-pc-linux-gnu"

%struct.USetAdder = type { ptr, ptr, ptr, ptr, ptr, ptr }

; Function Attrs: mustprogress nounwind uwtable
define internal noundef signext i8 @_ZL16extSetUseMapping20UConverterUnicodeSetij(i32 noundef %0, i32 noundef %1, i32 noundef %2) #5 {
  %4 = alloca i8, align 1
  %5 = alloca i32, align 4
  %6 = alloca i32, align 4
  %7 = alloca i32, align 4
  store i32 %0, ptr %5, align 4, !tbaa !74
  store i32 %1, ptr %6, align 4, !tbaa !10
  store i32 %2, ptr %7, align 4, !tbaa !10
  %8 = load i32, ptr %5, align 4, !tbaa !74
  %9 = icmp eq i32 %8, 0
  br i1 %9, label %10, label %16

10:                                               ; preds = %3
  %11 = load i32, ptr %7, align 4, !tbaa !10
  %12 = and i32 %11, -1610612736
  %13 = icmp ne i32 %12, -2147483648
  br i1 %13, label %14, label %15

14:                                               ; preds = %10
  store i8 0, ptr %4, align 1
  br label %29

15:                                               ; preds = %10
  br label %22

16:                                               ; preds = %3
  %17 = load i32, ptr %7, align 4, !tbaa !10
  %18 = and i32 %17, 536870912
  %19 = icmp ne i32 %18, 0
  br i1 %19, label %20, label %21

20:                                               ; preds = %16
  store i8 0, ptr %4, align 1
  br label %29

21:                                               ; preds = %16
  br label %22

22:                                               ; preds = %21, %15
  %23 = load i32, ptr %7, align 4, !tbaa !10
  %24 = lshr i32 %23, 24
  %25 = and i32 %24, 31
  %26 = load i32, ptr %6, align 4, !tbaa !10
  %27 = icmp sge i32 %25, %26
  %28 = zext i1 %27 to i8
  store i8 %28, ptr %4, align 1
  br label %29

29:                                               ; preds = %22, %20, %14
  %30 = load i8, ptr %4, align 1
  ret i8 %30
}

; Function Attrs: mustprogress uwtable
define internal void @_ZL27ucnv_extGetUnicodeSetStringPK20UConverterSharedDataPKiPK9USetAdder20UConverterUnicodeSetiiPDsiiP10UErrorCode(ptr noundef %0, ptr noundef %1, ptr noundef %2, i32 noundef %3, i32 noundef %4, i32 noundef %5, ptr noundef %6, i32 noundef %7, i32 noundef %8, ptr noundef %9) #0 {
  %11 = alloca ptr, align 8
  %12 = alloca ptr, align 8
  %13 = alloca ptr, align 8
  %14 = alloca i32, align 4
  %15 = alloca i32, align 4
  %16 = alloca i32, align 4
  %17 = alloca ptr, align 8
  %18 = alloca i32, align 4
  %19 = alloca i32, align 4
  %20 = alloca ptr, align 8
  %21 = alloca ptr, align 8
  %22 = alloca ptr, align 8
  %23 = alloca i32, align 4
  %24 = alloca i32, align 4
  %25 = alloca i32, align 4
  store ptr %0, ptr %11, align 8, !tbaa !71
  store ptr %1, ptr %12, align 8, !tbaa !8
  store ptr %2, ptr %13, align 8, !tbaa !72
  store i32 %3, ptr %14, align 4, !tbaa !74
  store i32 %4, ptr %15, align 4, !tbaa !10
  store i32 %5, ptr %16, align 4, !tbaa !10
  store ptr %6, ptr %17, align 8, !tbaa !19
  store i32 %7, ptr %18, align 4, !tbaa !10
  store i32 %8, ptr %19, align 4, !tbaa !10
  store ptr %9, ptr %20, align 8, !tbaa !24
  call void @llvm.lifetime.start.p0(i64 8, ptr %21) #7
  call void @llvm.lifetime.start.p0(i64 8, ptr %22) #7
  call void @llvm.lifetime.start.p0(i64 4, ptr %23) #7
  call void @llvm.lifetime.start.p0(i64 4, ptr %24) #7
  call void @llvm.lifetime.start.p0(i64 4, ptr %25) #7
  %26 = load ptr, ptr %12, align 8, !tbaa !8
  %27 = load ptr, ptr %12, align 8, !tbaa !8
  %28 = getelementptr inbounds nuw i32, ptr %27, i64 5
  %29 = load i32, ptr %28, align 4, !tbaa !10
  %30 = sext i32 %29 to i64
  %31 = getelementptr inbounds i8, ptr %26, i64 %30
  %32 = load i32, ptr %19, align 4, !tbaa !10
  %33 = sext i32 %32 to i64
  %34 = getelementptr inbounds i16, ptr %31, i64 %33
  store ptr %34, ptr %21, align 8, !tbaa !19
  %35 = load ptr, ptr %12, align 8, !tbaa !8
  %36 = load ptr, ptr %12, align 8, !tbaa !8
  %37 = getelementptr inbounds nuw i32, ptr %36, i64 6
  %38 = load i32, ptr %37, align 4, !tbaa !10
  %39 = sext i32 %38 to i64
  %40 = getelementptr inbounds i8, ptr %35, i64 %39
  %41 = load i32, ptr %19, align 4, !tbaa !10
  %42 = sext i32 %41 to i64
  %43 = getelementptr inbounds i32, ptr %40, i64 %42
  store ptr %43, ptr %22, align 8, !tbaa !8
  %44 = load ptr, ptr %21, align 8, !tbaa !19
  %45 = getelementptr inbounds nuw i16, ptr %44, i32 1
  store ptr %45, ptr %21, align 8, !tbaa !19
  %46 = load i16, ptr %44, align 2, !tbaa !56
  %47 = zext i16 %46 to i32
  store i32 %47, ptr %25, align 4, !tbaa !10
  %48 = load ptr, ptr %22, align 8, !tbaa !8
  %49 = getelementptr inbounds nuw i32, ptr %48, i32 1
  store ptr %49, ptr %22, align 8, !tbaa !8
  %50 = load i32, ptr %48, align 4, !tbaa !10
  store i32 %50, ptr %23, align 4, !tbaa !10
  %51 = load i32, ptr %14, align 4, !tbaa !74
  %52 = load i32, ptr %15, align 4, !tbaa !10
  %53 = load i32, ptr %23, align 4, !tbaa !10
  %54 = call noundef signext i8 @_ZL16extSetUseMapping20UConverterUnicodeSetij(i32 noundef %51, i32 noundef %52, i32 noundef %53)
  %55 = icmp ne i8 %54, 0
  br i1 %55, label %56, label %80

56:                                               ; preds = %10
  %57 = load i32, ptr %18, align 4, !tbaa !10
  %58 = load i32, ptr %16, align 4, !tbaa !10
  %59 = icmp ule i32 %58, 65535
  %60 = select i1 %59, i32 1, i32 2
  %61 = icmp eq i32 %57, %60
  br i1 %61, label %62, label %70

62:                                               ; preds = %56
  %63 = load ptr, ptr %13, align 8, !tbaa !72
  %64 = getelementptr inbounds nuw %struct.USetAdder, ptr %63, i32 0, i32 1
  %65 = load ptr, ptr %64, align 8, !tbaa !78
  %66 = load ptr, ptr %13, align 8, !tbaa !72
  %67 = getelementptr inbounds nuw %struct.USetAdder, ptr %66, i32 0, i32 0
  %68 = load ptr, ptr %67, align 8, !tbaa !81
  %69 = load i32, ptr %16, align 4, !tbaa !10
  call void %65(ptr noundef %68, i32 noundef %69)
  br label %79

70:                                               ; preds = %56
  %71 = load ptr, ptr %13, align 8, !tbaa !72
  %72 = getelementptr inbounds nuw %struct.USetAdder, ptr %71, i32 0, i32 3
  %73 = load ptr, ptr %72, align 8, !tbaa !85
  %74 = load ptr, ptr %13, align 8, !tbaa !72
  %75 = getelementptr inbounds nuw %struct.USetAdder, ptr %74, i32 0, i32 0
  %76 = load ptr, ptr %75, align 8, !tbaa !81
  %77 = load ptr, ptr %17, align 8, !tbaa !19
  %78 = load i32, ptr %18, align 4, !tbaa !10
  call void %73(ptr noundef %76, ptr noundef %77, i32 noundef %78)
  br label %79

79:                                               ; preds = %70, %62
  br label %80

80:                                               ; preds = %79, %10
  store i32 0, ptr %24, align 4, !tbaa !10
  br label %81

81:                                               ; preds = %138, %80
  %82 = load i32, ptr %24, align 4, !tbaa !10
  %83 = load i32, ptr %25, align 4, !tbaa !10
  %84 = icmp slt i32 %82, %83
  br i1 %84, label %85, label %141

85:                                               ; preds = %81
  %86 = load ptr, ptr %21, align 8, !tbaa !19
  %87 = load i32, ptr %24, align 4, !tbaa !10
  %88 = sext i32 %87 to i64
  %89 = getelementptr inbounds i16, ptr %86, i64 %88
  %90 = load i16, ptr %89, align 2, !tbaa !56
  %91 = load ptr, ptr %17, align 8, !tbaa !19
  %92 = load i32, ptr %18, align 4, !tbaa !10
  %93 = sext i32 %92 to i64
  %94 = getelementptr inbounds i16, ptr %91, i64 %93
  store i16 %90, ptr %94, align 2, !tbaa !56
  %95 = load ptr, ptr %22, align 8, !tbaa !8
  %96 = load i32, ptr %24, align 4, !tbaa !10
  %97 = sext i32 %96 to i64
  %98 = getelementptr inbounds i32, ptr %95, i64 %97
  %99 = load i32, ptr %98, align 4, !tbaa !10
  store i32 %99, ptr %23, align 4, !tbaa !10
  %100 = load i32, ptr %23, align 4, !tbaa !10
  %101 = icmp eq i32 %100, 0
  br i1 %101, label %102, label %103

102:                                              ; preds = %85
  br label %137

103:                                              ; preds = %85
  %104 = load i32, ptr %23, align 4, !tbaa !10
  %105 = lshr i32 %104, 24
  %106 = icmp eq i32 %105, 0
  br i1 %106, label %107, label %119

107:                                              ; preds = %103
  %108 = load ptr, ptr %11, align 8, !tbaa !71
  %109 = load ptr, ptr %12, align 8, !tbaa !8
  %110 = load ptr, ptr %13, align 8, !tbaa !72
  %111 = load i32, ptr %14, align 4, !tbaa !74
  %112 = load i32, ptr %15, align 4, !tbaa !10
  %113 = load i32, ptr %16, align 4, !tbaa !10
  %114 = load ptr, ptr %17, align 8, !tbaa !19
  %115 = load i32, ptr %18, align 4, !tbaa !10
  %116 = add nsw i32 %115, 1
  %117 = load i32, ptr %23, align 4, !tbaa !10
  %118 = load ptr, ptr %20, align 8, !tbaa !24
  call void @_ZL27ucnv_extGetUnicodeSetStringPK20UConverterSharedDataPKiPK9USetAdder20UConverterUnicodeSetiiPDsiiP10UErrorCode(ptr noundef %108, ptr noundef %109, ptr noundef %110, i32 noundef %111, i32 noundef %112, i32 noundef %113, ptr noundef %114, i32 noundef %116, i32 noundef %117, ptr noundef %118)
  br label %136

119:                                              ; preds = %103
  %120 = load i32, ptr %14, align 4, !tbaa !74
  %121 = load i32, ptr %15, align 4, !tbaa !10
  %122 = load i32, ptr %23, align 4, !tbaa !10
  %123 = call noundef signext i8 @_ZL16extSetUseMapping20UConverterUnicodeSetij(i32 noundef %120, i32 noundef %121, i32 noundef %122)
  %124 = icmp ne i8 %123, 0
  br i1 %124, label %125, label %135

125:                                              ; preds = %119
  %126 = load ptr, ptr %13, align 8, !tbaa !72
  %127 = getelementptr inbounds nuw %struct.USetAdder, ptr %126, i32 0, i32 3
  %128 = load ptr, ptr %127, align 8, !tbaa !85
  %129 = load ptr, ptr %13, align 8, !tbaa !72
  %130 = getelementptr inbounds nuw %struct.USetAdder, ptr %129, i32 0, i32 0
  %131 = load ptr, ptr %130, align 8, !tbaa !81
  %132 = load ptr, ptr %17, align 8, !tbaa !19
  %133 = load i32, ptr %18, align 4, !tbaa !10
  %134 = add nsw i32 %133, 1
  call void %128(ptr noundef %131, ptr noundef %132, i32 noundef %134)
  br label %135

135:                                              ; preds = %125, %119
  br label %136

136:                                              ; preds = %135, %107
  br label %137

137:                                              ; preds = %136, %102
  br label %138

138:                                              ; preds = %137
  %139 = load i32, ptr %24, align 4, !tbaa !10
  %140 = add nsw i32 %139, 1
  store i32 %140, ptr %24, align 4, !tbaa !10
  br label %81, !llvm.loop !86

141:                                              ; preds = %81
  call void @llvm.lifetime.end.p0(i64 4, ptr %25) #7
  call void @llvm.lifetime.end.p0(i64 4, ptr %24) #7
  call void @llvm.lifetime.end.p0(i64 4, ptr %23) #7
  call void @llvm.lifetime.end.p0(i64 8, ptr %22) #7
  call void @llvm.lifetime.end.p0(i64 8, ptr %21) #7
  ret void
}