; Function Attrs: mustprogress uwtable
define internal fastcc void @_ZL27ucnv_extGetUnicodeSetStringPK20UConverterSharedDataPKiPK9USetAdder20UConverterUnicodeSetiiPDsiiP10UErrorCode(ptr noundef nonnull readonly captures(none) %0, ptr noundef readonly captures(none) %1, i32 noundef %2, i32 noundef range(i32 1, 4) %3, i32 noundef %4, ptr noundef nonnull %5, i32 noundef %6, i32 noundef range(i32 1, 0) %7) unnamed_addr #0 {
  %9 = getelementptr inbounds nuw i8, ptr %0, i64 20
  %10 = load i32, ptr %9, align 4, !tbaa !3
  %11 = sext i32 %10 to i64
  %12 = getelementptr inbounds i8, ptr %0, i64 %11
  %13 = sext i32 %7 to i64
  %14 = getelementptr inbounds i16, ptr %12, i64 %13
  %15 = getelementptr inbounds nuw i8, ptr %0, i64 24
  %16 = load i32, ptr %15, align 4, !tbaa !3
  %17 = sext i32 %16 to i64
  %18 = getelementptr inbounds i8, ptr %0, i64 %17
  %19 = getelementptr inbounds i32, ptr %18, i64 %13
  %20 = getelementptr inbounds nuw i8, ptr %14, i64 2
  %21 = load i16, ptr %14, align 2, !tbaa !48
  %22 = getelementptr inbounds nuw i8, ptr %19, i64 4
  %23 = load i32, ptr %19, align 4, !tbaa !3
  %24 = icmp eq i32 %2, 0
  br i1 %24, label %25, label %27

25:                                               ; preds = %8
  %26 = and i32 %23, -1610612736
  %.not6.i = icmp eq i32 %26, -2147483648
  br i1 %.not6.i, label %_ZL16extSetUseMapping20UConverterUnicodeSetij.exit, label %_ZL16extSetUseMapping20UConverterUnicodeSetij.exit.thread.thread16

27:                                               ; preds = %8
  %28 = and i32 %23, 536870912
  %.not.i = icmp eq i32 %28, 0
  br i1 %.not.i, label %_ZL16extSetUseMapping20UConverterUnicodeSetij.exit, label %_ZL16extSetUseMapping20UConverterUnicodeSetij.exit.thread.thread

_ZL16extSetUseMapping20UConverterUnicodeSetij.exit: ; preds = %25, %27
  %29 = lshr i32 %23, 24
  %30 = and i32 %29, 31
  %.not5 = icmp samesign ult i32 %30, %3
  br i1 %.not5, label %_ZL16extSetUseMapping20UConverterUnicodeSetij.exit.thread, label %31

31:                                               ; preds = %_ZL16extSetUseMapping20UConverterUnicodeSetij.exit
  %32 = icmp ult i32 %4, 65536
  %33 = select i1 %32, i32 1, i32 2
  %34 = icmp eq i32 %6, %33
  %35 = load ptr, ptr %1, align 8, !tbaa !65
  br i1 %34, label %36, label %39

36:                                               ; preds = %31
  %37 = getelementptr inbounds nuw i8, ptr %1, i64 8
  %38 = load ptr, ptr %37, align 8, !tbaa !62
  tail call void %38(ptr noundef %35, i32 noundef %4)
  br label %_ZL16extSetUseMapping20UConverterUnicodeSetij.exit.thread

39:                                               ; preds = %31
  %40 = getelementptr inbounds nuw i8, ptr %1, i64 24
  %41 = load ptr, ptr %40, align 8, !tbaa !69
  tail call void %41(ptr noundef %35, ptr noundef nonnull %5, i32 noundef %6)
  br label %_ZL16extSetUseMapping20UConverterUnicodeSetij.exit.thread

_ZL16extSetUseMapping20UConverterUnicodeSetij.exit.thread: ; preds = %36, %39, %_ZL16extSetUseMapping20UConverterUnicodeSetij.exit
  %.not7 = icmp eq i16 %21, 0
  br i1 %.not7, label %._crit_edge, label %.lr.ph

_ZL16extSetUseMapping20UConverterUnicodeSetij.exit.thread.thread16: ; preds = %25
  %.not717 = icmp eq i16 %21, 0
  br i1 %.not717, label %._crit_edge, label %.lr.ph.thread18

.lr.ph.thread18:                                  ; preds = %_ZL16extSetUseMapping20UConverterUnicodeSetij.exit.thread.thread16
  %42 = sext i32 %6 to i64
  %43 = getelementptr inbounds i16, ptr %5, i64 %42
  %44 = getelementptr inbounds nuw i8, ptr %1, i64 24
  %45 = add nsw i32 %6, 1
  br label %.lr.ph.split.us.preheader

_ZL16extSetUseMapping20UConverterUnicodeSetij.exit.thread.thread: ; preds = %27
  %.not715 = icmp eq i16 %21, 0
  br i1 %.not715, label %._crit_edge, label %.lr.ph.thread

.lr.ph.thread:                                    ; preds = %_ZL16extSetUseMapping20UConverterUnicodeSetij.exit.thread.thread
  %46 = sext i32 %6 to i64
  %47 = getelementptr inbounds i16, ptr %5, i64 %46
  %48 = getelementptr inbounds nuw i8, ptr %1, i64 24
  %49 = add nsw i32 %6, 1
  br label %.lr.ph.split.preheader

.lr.ph:                                           ; preds = %_ZL16extSetUseMapping20UConverterUnicodeSetij.exit.thread
  %50 = sext i32 %6 to i64
  %51 = getelementptr inbounds i16, ptr %5, i64 %50
  %52 = getelementptr inbounds nuw i8, ptr %1, i64 24
  %53 = add nsw i32 %6, 1
  br i1 %24, label %.lr.ph.split.us.preheader, label %.lr.ph.split.preheader

.lr.ph.split.preheader:                           ; preds = %.lr.ph.thread, %.lr.ph
  %54 = phi i32 [ %49, %.lr.ph.thread ], [ %53, %.lr.ph ]
  %55 = phi ptr [ %48, %.lr.ph.thread ], [ %52, %.lr.ph ]
  %56 = phi ptr [ %47, %.lr.ph.thread ], [ %51, %.lr.ph ]
  %wide.trip.count = zext i16 %21 to i64
  br label %.lr.ph.split

.lr.ph.split.us.preheader:                        ; preds = %.lr.ph.thread18, %.lr.ph
  %57 = phi i32 [ %45, %.lr.ph.thread18 ], [ %53, %.lr.ph ]
  %58 = phi ptr [ %44, %.lr.ph.thread18 ], [ %52, %.lr.ph ]
  %59 = phi ptr [ %43, %.lr.ph.thread18 ], [ %51, %.lr.ph ]
  %wide.trip.count13 = zext i16 %21 to i64
  br label %.lr.ph.split.us

.lr.ph.split.us:                                  ; preds = %.lr.ph.split.us.preheader, %_ZL16extSetUseMapping20UConverterUnicodeSetij.exit53.thread.us
  %indvars.iv10 = phi i64 [ 0, %.lr.ph.split.us.preheader ], [ %indvars.iv.next11, %_ZL16extSetUseMapping20UConverterUnicodeSetij.exit53.thread.us ]
  %60 = getelementptr inbounds nuw i16, ptr %20, i64 %indvars.iv10
  %61 = load i16, ptr %60, align 2, !tbaa !48
  store i16 %61, ptr %59, align 2, !tbaa !48
  %62 = getelementptr inbounds nuw i32, ptr %22, i64 %indvars.iv10
  %63 = load i32, ptr %62, align 4, !tbaa !3
  %64 = icmp eq i32 %63, 0
  br i1 %64, label %_ZL16extSetUseMapping20UConverterUnicodeSetij.exit53.thread.us, label %65

65:                                               ; preds = %.lr.ph.split.us
  %66 = icmp ult i32 %63, 16777216
  br i1 %66, label %74, label %67

67:                                               ; preds = %65
  %68 = and i32 %63, -1610612736
  %.not6.i52.us = icmp eq i32 %68, -2147483648
  br i1 %.not6.i52.us, label %_ZL16extSetUseMapping20UConverterUnicodeSetij.exit53.us, label %_ZL16extSetUseMapping20UConverterUnicodeSetij.exit53.thread.us

_ZL16extSetUseMapping20UConverterUnicodeSetij.exit53.us: ; preds = %67
  %69 = lshr i32 %63, 24
  %70 = and i32 %69, 31
  %.not.us = icmp samesign ult i32 %70, %3
  br i1 %.not.us, label %_ZL16extSetUseMapping20UConverterUnicodeSetij.exit53.thread.us, label %71

71:                                               ; preds = %_ZL16extSetUseMapping20UConverterUnicodeSetij.exit53.us
  %72 = load ptr, ptr %58, align 8, !tbaa !69
  %73 = load ptr, ptr %1, align 8, !tbaa !65
  tail call void %72(ptr noundef %73, ptr noundef nonnull %5, i32 noundef %57)
  br label %_ZL16extSetUseMapping20UConverterUnicodeSetij.exit53.thread.us

74:                                               ; preds = %65
  tail call fastcc void @_ZL27ucnv_extGetUnicodeSetStringPK20UConverterSharedDataPKiPK9USetAdder20UConverterUnicodeSetiiPDsiiP10UErrorCode(ptr noundef %0, ptr noundef %1, i32 noundef 0, i32 noundef %3, i32 noundef %4, ptr noundef %5, i32 noundef %57, i32 noundef %63)
  br label %_ZL16extSetUseMapping20UConverterUnicodeSetij.exit53.thread.us

_ZL16extSetUseMapping20UConverterUnicodeSetij.exit53.thread.us: ; preds = %74, %71, %_ZL16extSetUseMapping20UConverterUnicodeSetij.exit53.us, %67, %.lr.ph.split.us
  %indvars.iv.next11 = add nuw nsw i64 %indvars.iv10, 1
  %exitcond14.not = icmp eq i64 %indvars.iv.next11, %wide.trip.count13
  br i1 %exitcond14.not, label %._crit_edge, label %.lr.ph.split.us, !llvm.loop !70

.lr.ph.split:                                     ; preds = %.lr.ph.split.preheader, %_ZL16extSetUseMapping20UConverterUnicodeSetij.exit53.thread
  %indvars.iv = phi i64 [ 0, %.lr.ph.split.preheader ], [ %indvars.iv.next, %_ZL16extSetUseMapping20UConverterUnicodeSetij.exit53.thread ]
  %75 = getelementptr inbounds nuw i16, ptr %20, i64 %indvars.iv
  %76 = load i16, ptr %75, align 2, !tbaa !48
  store i16 %76, ptr %56, align 2, !tbaa !48
  %77 = getelementptr inbounds nuw i32, ptr %22, i64 %indvars.iv
  %78 = load i32, ptr %77, align 4, !tbaa !3
  %79 = icmp eq i32 %78, 0
  br i1 %79, label %_ZL16extSetUseMapping20UConverterUnicodeSetij.exit53.thread, label %80

80:                                               ; preds = %.lr.ph.split
  %81 = icmp ult i32 %78, 16777216
  br i1 %81, label %82, label %83

82:                                               ; preds = %80
  tail call fastcc void @_ZL27ucnv_extGetUnicodeSetStringPK20UConverterSharedDataPKiPK9USetAdder20UConverterUnicodeSetiiPDsiiP10UErrorCode(ptr noundef %0, ptr noundef %1, i32 noundef %2, i32 noundef %3, i32 noundef %4, ptr noundef %5, i32 noundef %54, i32 noundef %78)
  br label %_ZL16extSetUseMapping20UConverterUnicodeSetij.exit53.thread

83:                                               ; preds = %80
  %84 = and i32 %78, 536870912
  %.not.i50 = icmp eq i32 %84, 0
  br i1 %.not.i50, label %_ZL16extSetUseMapping20UConverterUnicodeSetij.exit53, label %_ZL16extSetUseMapping20UConverterUnicodeSetij.exit53.thread

_ZL16extSetUseMapping20UConverterUnicodeSetij.exit53: ; preds = %83
  %85 = lshr i32 %78, 24
  %86 = and i32 %85, 31
  %.not = icmp samesign ult i32 %86, %3
  br i1 %.not, label %_ZL16extSetUseMapping20UConverterUnicodeSetij.exit53.thread, label %87

87:                                               ; preds = %_ZL16extSetUseMapping20UConverterUnicodeSetij.exit53
  %88 = load ptr, ptr %55, align 8, !tbaa !69
  %89 = load ptr, ptr %1, align 8, !tbaa !65
  tail call void %88(ptr noundef %89, ptr noundef nonnull %5, i32 noundef %54)
  br label %_ZL16extSetUseMapping20UConverterUnicodeSetij.exit53.thread

_ZL16extSetUseMapping20UConverterUnicodeSetij.exit53.thread: ; preds = %83, %.lr.ph.split, %_ZL16extSetUseMapping20UConverterUnicodeSetij.exit53, %87, %82
  %indvars.iv.next = add nuw nsw i64 %indvars.iv, 1
  %exitcond.not = icmp eq i64 %indvars.iv.next, %wide.trip.count
  br i1 %exitcond.not, label %._crit_edge, label %.lr.ph.split, !llvm.loop !70

._crit_edge:                                      ; preds = %_ZL16extSetUseMapping20UConverterUnicodeSetij.exit53.thread, %_ZL16extSetUseMapping20UConverterUnicodeSetij.exit53.thread.us, %_ZL16extSetUseMapping20UConverterUnicodeSetij.exit.thread.thread16, %_ZL16extSetUseMapping20UConverterUnicodeSetij.exit.thread.thread, %_ZL16extSetUseMapping20UConverterUnicodeSetij.exit.thread
  ret void
}